; ModuleID = '33/706.c'
source_filename = "33/706.c"
target datalayout = "e-m:e-p270:32:32-p271:32:32-p272:64:64-i64:64-f80:128-n8:16:32:64-S128"
target triple = "x86_64-pc-linux-gnu"

@.str = private unnamed_addr constant [3 x i8] c"%d\00", align 1
@.str.1 = private unnamed_addr constant [3 x i8] c"%s\00", align 1
@.str.2 = private unnamed_addr constant [4 x i8] c"%s\0A\00", align 1

; Function Attrs: noinline nounwind uwtable
define dso_local i32 @main() #0 {
  %1 = alloca i32, align 4
  %2 = alloca i32, align 4
  %3 = alloca i32, align 4
  %4 = alloca [260 x i8], align 16
  %5 = alloca [260 x i8], align 16
  %6 = alloca i8*, align 8
  %7 = alloca i8*, align 8
  store i32 0, i32* %1, align 4
  %8 = bitcast [260 x i8]* %5 to i8*
  call void @llvm.memset.p0i8.i64(i8* align 16 %8, i8 0, i64 260, i1 false)
  %9 = call i32 (i8*, ...) @__isoc99_scanf(i8* getelementptr inbounds ([3 x i8], [3 x i8]* @.str, i64 0, i64 0), i32* %2)
  store i32 0, i32* %3, align 4
  br label %10

10:                                               ; preds = %62, %0
  %11 = load i32, i32* %3, align 4
  %12 = load i32, i32* %2, align 4
  %13 = icmp slt i32 %11, %12
  br i1 %13, label %14, label %65

14:                                               ; preds = %10
  %15 = getelementptr inbounds [260 x i8], [260 x i8]* %4, i64 0, i64 0
  %16 = call i32 (i8*, ...) @__isoc99_scanf(i8* getelementptr inbounds ([3 x i8], [3 x i8]* @.str.1, i64 0, i64 0), i8* %15)
  %17 = getelementptr inbounds [260 x i8], [260 x i8]* %4, i64 0, i64 0
  store i8* %17, i8** %6, align 8
  %18 = getelementptr inbounds [260 x i8], [260 x i8]* %5, i64 0, i64 0
  store i8* %18, i8** %7, align 8
  br label %19

19:                                               ; preds = %53, %14
  %20 = load i8*, i8** %6, align 8
  %21 = load i8, i8* %20, align 1
  %22 = sext i8 %21 to i32
  %23 = icmp ne i32 %22, 0
  br i1 %23, label %24, label %58

24:                                               ; preds = %19
  %25 = load i8*, i8** %6, align 8
  %26 = load i8, i8* %25, align 1
  %27 = sext i8 %26 to i32
  %28 = icmp eq i32 %27, 65
  br i1 %28, label %29, label %31

29:                                               ; preds = %24
  %30 = load i8*, i8** %7, align 8
  store i8 84, i8* %30, align 1
  br label %31

31:                                               ; preds = %29, %24
  %32 = load i8*, i8** %6, align 8
  %33 = load i8, i8* %32, align 1
  %34 = sext i8 %33 to i32
  %35 = icmp eq i32 %34, 84
  br i1 %35, label %36, label %38

36:                                               ; preds = %31
  %37 = load i8*, i8** %7, align 8
  store i8 65, i8* %37, align 1
  br label %38

38:                                               ; preds = %36, %31
  %39 = load i8*, i8** %6, align 8
  %40 = load i8, i8* %39, align 1
  %41 = sext i8 %40 to i32
  %42 = icmp eq i32 %41, 71
  br i1 %42, label %43, label %45

43:                                               ; preds = %38
  %44 = load i8*, i8** %7, align 8
  store i8 67, i8* %44, align 1
  br label %45

45:                                               ; preds = %43, %38
  %46 = load i8*, i8** %6, align 8
  %47 = load i8, i8* %46, align 1
  %48 = sext i8 %47 to i32
  %49 = icmp eq i32 %48, 67
  br i1 %49, label %50, label %52

50:                                               ; preds = %45
  %51 = load i8*, i8** %7, align 8
  store i8 71, i8* %51, align 1
  br label %52

52:                                               ; preds = %50, %45
  br label %53

53:                                               ; preds = %52
  %54 = load i8*, i8** %6, align 8
  %55 = getelementptr inbounds i8, i8* %54, i32 1
  store i8* %55, i8** %6, align 8
  %56 = load i8*, i8** %7, align 8
  %57 = getelementptr inbounds i8, i8* %56, i32 1
  store i8* %57, i8** %7, align 8
  br label %19

58:                                               ; preds = %19
  %59 = load i8*, i8** %7, align 8
  store i8 0, i8* %59, align 1
  %60 = getelementptr inbounds [260 x i8], [260 x i8]* %5, i64 0, i64 0
  %61 = call i32 (i8*, ...) @printf(i8* getelementptr inbounds ([4 x i8], [4 x i8]* @.str.2, i64 0, i64 0), i8* %60)
  br label %62

62:                                               ; preds = %58
  %63 = load i32, i32* %3, align 4
  %64 = add nsw i32 %63, 1
  store i32 %64, i32* %3, align 4
  br label %10

65:                                               ; preds = %10
  ret i32 0
}

; Function Attrs: argmemonly nounwind willreturn
declare void @llvm.memset.p0i8.i64(i8* nocapture writeonly, i8, i64, i1 immarg) #1

declare dso_local i32 @__isoc99_scanf(i8*, ...) #2

declare dso_local i32 @printf(i8*, ...) #2


!llvm.module.flags = !{!0}
!llvm.ident = !{!1}

!0 = !{i32 1, !"wchar_size", i32 4}
!1 = !{!"clang version 10.0.0-4ubuntu1 "}
